; Function Attrs: mustprogress nofree norecurse nosync nounwind willreturn memory(readwrite, inaccessiblemem: none) uwtable
define dso_local range(i32 0, 44) i32 @curlx_dyn_tail(ptr noundef captures(none) %0, i64 noundef %1) local_unnamed_addr #4 {
  %3 = getelementptr inbounds nuw i8, ptr %0, i64 8
  %4 = load i64, ptr %3, align 8, !tbaa !12
  %5 = icmp ugt i64 %1, %4
  br i1 %5, label %18, label %6

6:                                                ; preds = %2
  %7 = icmp eq i64 %1, %4
  br i1 %7, label %18, label %8

8:                                                ; preds = %6
  %.not = icmp eq i64 %1, 0
  br i1 %.not, label %9, label %12

9:                                                ; preds = %8
  %.not.i = icmp eq i64 %4, 0
  br i1 %.not.i, label %curlx_dyn_reset.exit, label %10

10:                                               ; preds = %9
  %11 = load ptr, ptr %0, align 8, !tbaa !11
  store i8 0, ptr %11, align 1, !tbaa !13
  br label %curlx_dyn_reset.exit

curlx_dyn_reset.exit:                             ; preds = %9, %10
  store i64 0, ptr %3, align 8, !tbaa !12
  br label %18

12:                                               ; preds = %8
  %13 = load ptr, ptr %0, align 8, !tbaa !11
  %14 = sub i64 %4, %1
  %15 = getelementptr inbounds nuw i8, ptr %13, i64 %14
  tail call void @llvm.memmove.p0.p0.i64(ptr align 1 %13, ptr align 1 %15, i64 %1, i1 false)
  store i64 %1, ptr %3, align 8, !tbaa !12
  %16 = load ptr, ptr %0, align 8, !tbaa !11
  %17 = getelementptr inbounds nuw i8, ptr %16, i64 %1
  store i8 0, ptr %17, align 1, !tbaa !13
  br label %18

18:                                               ; preds = %curlx_dyn_reset.exit, %12, %6, %2
  %.0 = phi i32 [ 43, %2 ], [ 0, %6 ], [ 0, %12 ], [ 0, %curlx_dyn_reset.exit ]
  ret i32 %.0
}